; ModuleID = '54/379.c'
source_filename = "54/379.c"
target datalayout = "e-m:e-p270:32:32-p271:32:32-p272:64:64-i64:64-f80:128-n8:16:32:64-S128"
target triple = "x86_64-pc-linux-gnu"

@.str = private unnamed_addr constant [5 x i8] c"%d%d\00", align 1
@.str.1 = private unnamed_addr constant [3 x i8] c"%d\00", align 1
@.str.2 = private unnamed_addr constant [2 x i8] c"7\00", align 1

; Function Attrs: noinline nounwind uwtable
define dso_local i32 @main() #0 {
  %1 = alloca i32, align 4
  %2 = alloca i32, align 4
  %3 = alloca i32, align 4
  %4 = alloca i32, align 4
  %5 = alloca i32, align 4
  %6 = alloca i32, align 4
  %7 = alloca i32, align 4
  %8 = alloca i32, align 4
  %9 = alloca i32, align 4
  store i32 0, i32* %1, align 4
  %10 = call i32 (i8*, ...) @__isoc99_scanf(i8* getelementptr inbounds ([5 x i8], [5 x i8]* @.str, i64 0, i64 0), i32* %2, i32* %3)
  store i32 1, i32* %7, align 4
  store i32 1, i32* %8, align 4
  %11 = load i32, i32* %2, align 4
  %12 = icmp sge i32 %11, 3
  br i1 %12, label %13, label %50

13:                                               ; preds = %0
  store i32 1, i32* %5, align 4
  br label %14

14:                                               ; preds = %44, %13
  %15 = load i32, i32* %5, align 4
  %16 = load i32, i32* %2, align 4
  %17 = icmp sle i32 %15, %16
  br i1 %17, label %18, label %47

18:                                               ; preds = %14
  %19 = load i32, i32* %9, align 4
  %20 = load i32, i32* %2, align 4
  %21 = sub nsw i32 %20, 1
  %22 = srem i32 %19, %21
  %23 = icmp eq i32 %22, 0
  br i1 %23, label %24, label %34

24:                                               ; preds = %18
  %25 = load i32, i32* %9, align 4
  %26 = load i32, i32* %2, align 4
  %27 = sub nsw i32 %26, 1
  %28 = sdiv i32 %25, %27
  store i32 %28, i32* %7, align 4
  %29 = load i32, i32* %7, align 4
  %30 = load i32, i32* %2, align 4
  %31 = mul nsw i32 %29, %30
  %32 = load i32, i32* %3, align 4
  %33 = add nsw i32 %31, %32
  store i32 %33, i32* %9, align 4
  br label %43

34:                                               ; preds = %18
  %35 = load i32, i32* %8, align 4
  %36 = add nsw i32 %35, 1
  store i32 %36, i32* %7, align 4
  %37 = load i32, i32* %7, align 4
  store i32 %37, i32* %8, align 4
  store i32 1, i32* %5, align 4
  %38 = load i32, i32* %2, align 4
  %39 = load i32, i32* %7, align 4
  %40 = mul nsw i32 %38, %39
  %41 = load i32, i32* %3, align 4
  %42 = add nsw i32 %40, %41
  store i32 %42, i32* %9, align 4
  br label %43

43:                                               ; preds = %34, %24
  br label %44

44:                                               ; preds = %43
  %45 = load i32, i32* %5, align 4
  %46 = add nsw i32 %45, 1
  store i32 %46, i32* %5, align 4
  br label %14

47:                                               ; preds = %14
  %48 = load i32, i32* %9, align 4
  %49 = call i32 (i8*, ...) @printf(i8* getelementptr inbounds ([3 x i8], [3 x i8]* @.str.1, i64 0, i64 0), i32 %48)
  br label %52

50:                                               ; preds = %0
  %51 = call i32 (i8*, ...) @printf(i8* getelementptr inbounds ([2 x i8], [2 x i8]* @.str.2, i64 0, i64 0))
  br label %52

52:                                               ; preds = %50, %47
  %53 = load i32, i32* %1, align 4
  ret i32 %53
}

declare dso_local i32 @__isoc99_scanf(i8*, ...) #1

declare dso_local i32 @printf(i8*, ...) #1


!llvm.module.flags = !{!0}
!llvm.ident = !{!1}

!0 = !{i32 1, !"wchar_size", i32 4}
!1 = !{!"clang version 10.0.0-4ubuntu1 "}
